target datalayout = "e-m:e-p270:32:32-p271:32:32-p272:64:64-i64:64-i128:128-f80:128-n8:16:32:64-S128"
target triple = "x86_64-pc-linux-gnu"

; Function Attrs: nounwind sspstrong uwtable
define internal i32 @wkmap_compact_table_replace(ptr noundef %0, ptr noundef %1, i64 noundef %2, i32 noundef %3) #0 {
  %5 = alloca ptr, align 8
  %6 = alloca ptr, align 8
  %7 = alloca i64, align 8
  %8 = alloca i32, align 4
  store ptr %0, ptr %5, align 8, !tbaa !48
  store ptr %1, ptr %6, align 8, !tbaa !48
  store i64 %2, ptr %7, align 8, !tbaa !7
  store i32 %3, ptr %8, align 4, !tbaa !46
  %9 = load ptr, ptr %5, align 8, !tbaa !48
  %10 = load i64, ptr %9, align 8, !tbaa !7
  %11 = inttoptr i64 %10 to ptr
  %12 = load i64, ptr %11, align 8, !tbaa !7
  %13 = call i64 @rb_gc_location(i64 noundef %12)
  %14 = load ptr, ptr %5, align 8, !tbaa !48
  %15 = load i64, ptr %14, align 8, !tbaa !7
  %16 = inttoptr i64 %15 to ptr
  store i64 %13, ptr %16, align 8, !tbaa !7
  %17 = load ptr, ptr %6, align 8, !tbaa !48
  %18 = load i64, ptr %17, align 8, !tbaa !7
  %19 = call i64 @rb_gc_location(i64 noundef %18)
  %20 = load ptr, ptr %6, align 8, !tbaa !48
  store i64 %19, ptr %20, align 8, !tbaa !7
  ret i32 0
}