; Function Attrs: nounwind sspstrong uwtable
define internal noundef i32 @wkmap_compact_table_replace(ptr noundef readonly captures(none) %0, ptr noundef captures(none) %1, i64 %2, i32 %3) #0 {
  %5 = load i64, ptr %0, align 8, !tbaa !7
  %6 = inttoptr i64 %5 to ptr
  %7 = load i64, ptr %6, align 8, !tbaa !7
  %8 = tail call i64 @rb_gc_location(i64 noundef %7) #10
  %9 = load i64, ptr %0, align 8, !tbaa !7
  %10 = inttoptr i64 %9 to ptr
  store i64 %8, ptr %10, align 8, !tbaa !7
  %11 = load i64, ptr %1, align 8, !tbaa !7
  %12 = tail call i64 @rb_gc_location(i64 noundef %11) #10
  store i64 %12, ptr %1, align 8, !tbaa !7
  ret i32 0
}